target datalayout = "e-m:e-p270:32:32-p271:32:32-p272:64:64-i64:64-i128:128-f80:128-n8:16:32:64-S128"
target triple = "x86_64-unknown-linux-gnu"

%"class.sat::literal" = type { i32 }
%"class.sat::lookahead" = type { ptr, i32, %class.reslimit, %"struct.sat::lookahead::config", double, double, double, %class.svector.1, %class.svector.1, %class.svector.3, %class.vector.5, %class.svector.3, %class.svector.3, %class.vector.6, %class.svector.3, %class.small_object_allocator, %class.vector.7, %class.ptr_vector.8, %class.svector.3, i32, %class.svector.3, i32, %class.svector.3, i8, %class.svector.3, %class.vector.10, ptr, %class.svector.11, i32, i32, %class.svector.3, i32, i32, %class.vector.13, %class.svector.14, double, %class.svector.1, i32, i64, %class.svector.16, i32, %class.indexed_uint_set, i32, i32, %"struct.sat::lookahead::stats", %class.svector.18, %"struct.sat::lookahead::cube_state", i32, %class.svector.22, %class.tracked_uint_set, %"class.sat::literal", i32, i32, %"class.sat::literal", %class.vector.26, %"class.sat::literal", %class.svector.27 }
%class.reslimit = type { %"struct.std::atomic", i8, i64, i64, %class.svector, %class.ptr_vector }
%"struct.std::atomic" = type { %"struct.std::__atomic_base" }
%"struct.std::__atomic_base" = type { i32 }
%class.svector = type { %class.vector }
%class.vector = type { ptr }
%class.ptr_vector = type { %class.vector.0 }
%class.vector.0 = type { ptr }
%"struct.sat::lookahead::config" = type { double, double, double, i32, i32, i8, i32, double, i32, i32, i32, i32, i32, double, double, double, double, double }
%class.vector.5 = type { ptr }
%class.vector.6 = type { ptr }
%class.small_object_allocator = type { [32 x ptr], [32 x ptr], i64 }
%class.vector.7 = type { ptr }
%class.ptr_vector.8 = type { %class.vector.9 }
%class.vector.9 = type { ptr }
%class.vector.10 = type { ptr }
%class.svector.11 = type { %class.vector.12 }
%class.vector.12 = type { ptr }
%class.svector.3 = type { %class.vector.4 }
%class.vector.4 = type { ptr }
%class.vector.13 = type { ptr }
%class.svector.14 = type { %class.vector.15 }
%class.vector.15 = type { ptr }
%class.svector.1 = type { %class.vector.2 }
%class.vector.2 = type { ptr }
%class.svector.16 = type { %class.vector.17 }
%class.vector.17 = type { ptr }
%class.indexed_uint_set = type { i32, %class.svector.3, %class.svector.3 }
%"struct.sat::lookahead::stats" = type { i32, i32, i32, i32, i32, i32, i32, i32 }
%class.svector.18 = type { %class.vector.19 }
%class.vector.19 = type { ptr }
%"struct.sat::lookahead::cube_state" = type <{ i8, [7 x i8], %class.svector.20, %class.svector.1, double, double, i32, i32, i32, [4 x i8] }>
%class.svector.20 = type { %class.vector.21 }
%class.vector.21 = type { ptr }
%class.svector.22 = type { %class.vector.23 }
%class.vector.23 = type { ptr }
%class.tracked_uint_set = type { %class.svector.24, %class.svector.3 }
%class.svector.24 = type { %class.vector.25 }
%class.vector.25 = type { ptr }
%class.vector.26 = type { ptr }
%class.svector.27 = type { %class.vector.28 }
%class.vector.28 = type { ptr }
%"struct.sat::lookahead::candidate" = type { i32, double }

; Function Attrs: mustprogress nounwind uwtable
define linkonce_odr hidden noundef nonnull align 8 dereferenceable(16) ptr @_ZN6vectorIN3sat9lookahead9candidateELb0EjEixEj(ptr noundef nonnull align 8 dereferenceable(8) %this, i32 noundef %idx) #4 comdat align 2 {
entry:
  %this.addr = alloca ptr, align 8
  %idx.addr = alloca i32, align 4
  store ptr %this, ptr %this.addr, align 8
  store i32 %idx, ptr %idx.addr, align 4
  %this1 = load ptr, ptr %this.addr, align 8
  %m_data = getelementptr inbounds %class.vector.23, ptr %this1, i32 0, i32 0
  %0 = load ptr, ptr %m_data, align 8
  %1 = load i32, ptr %idx.addr, align 4
  %idxprom = zext i32 %1 to i64
  %arrayidx = getelementptr inbounds %"struct.sat::lookahead::candidate", ptr %0, i64 %idxprom
  ret ptr %arrayidx
}

; Function Attrs: mustprogress uwtable
define hidden void @_ZN3sat9lookahead9sift_downEjj(ptr noundef nonnull align 8 dereferenceable(1160) %this, i32 noundef %j, i32 noundef %sz) #5 align 2 {
entry:
  %this.addr = alloca ptr, align 8
  %j.addr = alloca i32, align 4
  %sz.addr = alloca i32, align 4
  %i = alloca i32, align 4
  %c = alloca %"struct.sat::lookahead::candidate", align 8
  %k = alloca i32, align 4
  store ptr %this, ptr %this.addr, align 8
  store i32 %j, ptr %j.addr, align 4
  store i32 %sz, ptr %sz.addr, align 4
  %this1 = load ptr, ptr %this.addr, align 8
  %0 = load i32, ptr %j.addr, align 4
  store i32 %0, ptr %i, align 4
  %m_candidates = getelementptr inbounds %"class.sat::lookahead", ptr %this1, i32 0, i32 48
  %1 = load i32, ptr %j.addr, align 4
  %call = call noundef nonnull align 8 dereferenceable(16) ptr @_ZN6vectorIN3sat9lookahead9candidateELb0EjEixEj(ptr noundef nonnull align 8 dereferenceable(8) %m_candidates, i32 noundef %1)
  call void @llvm.memcpy.p0.p0.i64(ptr align 8 %c, ptr align 8 %call, i64 16, i1 false)
  %2 = load i32, ptr %j.addr, align 4
  %mul = mul i32 2, %2
  %add = add i32 %mul, 1
  store i32 %add, ptr %k, align 4
  br label %for.cond

for.cond:                                         ; preds = %for.inc, %entry
  %3 = load i32, ptr %k, align 4
  %4 = load i32, ptr %sz.addr, align 4
  %cmp = icmp ult i32 %3, %4
  br i1 %cmp, label %for.body, label %for.end

for.body:                                         ; preds = %for.cond
  %5 = load i32, ptr %k, align 4
  %add2 = add i32 %5, 1
  %6 = load i32, ptr %sz.addr, align 4
  %cmp3 = icmp ult i32 %add2, %6
  br i1 %cmp3, label %land.lhs.true, label %if.end

land.lhs.true:                                    ; preds = %for.body
  %m_candidates4 = getelementptr inbounds %"class.sat::lookahead", ptr %this1, i32 0, i32 48
  %7 = load i32, ptr %k, align 4
  %call5 = call noundef nonnull align 8 dereferenceable(16) ptr @_ZN6vectorIN3sat9lookahead9candidateELb0EjEixEj(ptr noundef nonnull align 8 dereferenceable(8) %m_candidates4, i32 noundef %7)
  %m_rating = getelementptr inbounds %"struct.sat::lookahead::candidate", ptr %call5, i32 0, i32 1
  %8 = load double, ptr %m_rating, align 8
  %m_candidates6 = getelementptr inbounds %"class.sat::lookahead", ptr %this1, i32 0, i32 48
  %9 = load i32, ptr %k, align 4
  %add7 = add i32 %9, 1
  %call8 = call noundef nonnull align 8 dereferenceable(16) ptr @_ZN6vectorIN3sat9lookahead9candidateELb0EjEixEj(ptr noundef nonnull align 8 dereferenceable(8) %m_candidates6, i32 noundef %add7)
  %m_rating9 = getelementptr inbounds %"struct.sat::lookahead::candidate", ptr %call8, i32 0, i32 1
  %10 = load double, ptr %m_rating9, align 8
  %cmp10 = fcmp ogt double %8, %10
  br i1 %cmp10, label %if.then, label %if.end

if.then:                                          ; preds = %land.lhs.true
  %11 = load i32, ptr %k, align 4
  %inc = add i32 %11, 1
  store i32 %inc, ptr %k, align 4
  br label %if.end

if.end:                                           ; preds = %if.then, %land.lhs.true, %for.body
  %m_rating11 = getelementptr inbounds %"struct.sat::lookahead::candidate", ptr %c, i32 0, i32 1
  %12 = load double, ptr %m_rating11, align 8
  %m_candidates12 = getelementptr inbounds %"class.sat::lookahead", ptr %this1, i32 0, i32 48
  %13 = load i32, ptr %k, align 4
  %call13 = call noundef nonnull align 8 dereferenceable(16) ptr @_ZN6vectorIN3sat9lookahead9candidateELb0EjEixEj(ptr noundef nonnull align 8 dereferenceable(8) %m_candidates12, i32 noundef %13)
  %m_rating14 = getelementptr inbounds %"struct.sat::lookahead::candidate", ptr %call13, i32 0, i32 1
  %14 = load double, ptr %m_rating14, align 8
  %cmp15 = fcmp ole double %12, %14
  br i1 %cmp15, label %if.then16, label %if.end17

if.then16:                                        ; preds = %if.end
  br label %for.end

if.end17:                                         ; preds = %if.end
  %m_candidates18 = getelementptr inbounds %"class.sat::lookahead", ptr %this1, i32 0, i32 48
  %15 = load i32, ptr %k, align 4
  %call19 = call noundef nonnull align 8 dereferenceable(16) ptr @_ZN6vectorIN3sat9lookahead9candidateELb0EjEixEj(ptr noundef nonnull align 8 dereferenceable(8) %m_candidates18, i32 noundef %15)
  %m_candidates20 = getelementptr inbounds %"class.sat::lookahead", ptr %this1, i32 0, i32 48
  %16 = load i32, ptr %i, align 4
  %call21 = call noundef nonnull align 8 dereferenceable(16) ptr @_ZN6vectorIN3sat9lookahead9candidateELb0EjEixEj(ptr noundef nonnull align 8 dereferenceable(8) %m_candidates20, i32 noundef %16)
  call void @llvm.memcpy.p0.p0.i64(ptr align 8 %call21, ptr align 8 %call19, i64 16, i1 false)
  br label %for.inc

for.inc:                                          ; preds = %if.end17
  %17 = load i32, ptr %k, align 4
  store i32 %17, ptr %i, align 4
  %18 = load i32, ptr %k, align 4
  %mul22 = mul i32 2, %18
  %add23 = add i32 %mul22, 1
  store i32 %add23, ptr %k, align 4
  br label %for.cond, !llvm.loop !26

for.end:                                          ; preds = %if.then16, %for.cond
  %19 = load i32, ptr %i, align 4
  %20 = load i32, ptr %j.addr, align 4
  %cmp24 = icmp ugt i32 %19, %20
  br i1 %cmp24, label %if.then25, label %if.end28

if.then25:                                        ; preds = %for.end
  %m_candidates26 = getelementptr inbounds %"class.sat::lookahead", ptr %this1, i32 0, i32 48
  %21 = load i32, ptr %i, align 4
  %call27 = call noundef nonnull align 8 dereferenceable(16) ptr @_ZN6vectorIN3sat9lookahead9candidateELb0EjEixEj(ptr noundef nonnull align 8 dereferenceable(8) %m_candidates26, i32 noundef %21)
  call void @llvm.memcpy.p0.p0.i64(ptr align 8 %call27, ptr align 8 %c, i64 16, i1 false)
  br label %if.end28

if.end28:                                         ; preds = %if.then25, %for.end
  ret void
}

; Function Attrs: mustprogress nounwind uwtable
define linkonce_odr hidden noundef i32 @_ZNK6vectorIN3sat9lookahead9candidateELb0EjE4sizeEv(ptr noundef nonnull align 8 dereferenceable(8) %this) #4 comdat align 2 {
entry:
  %retval = alloca i32, align 4
  %this.addr = alloca ptr, align 8
  store ptr %this, ptr %this.addr, align 8
  %this1 = load ptr, ptr %this.addr, align 8
  %m_data = getelementptr inbounds %class.vector.23, ptr %this1, i32 0, i32 0
  %0 = load ptr, ptr %m_data, align 8
  %cmp = icmp eq ptr %0, null
  br i1 %cmp, label %if.then, label %if.end

if.then:                                          ; preds = %entry
  store i32 0, ptr %retval, align 4
  br label %return

if.end:                                           ; preds = %entry
  %m_data2 = getelementptr inbounds %class.vector.23, ptr %this1, i32 0, i32 0
  %1 = load ptr, ptr %m_data2, align 8
  %arrayidx = getelementptr inbounds i32, ptr %1, i64 -1
  %2 = load i32, ptr %arrayidx, align 4
  store i32 %2, ptr %retval, align 4
  br label %return

return:                                           ; preds = %if.end, %if.then
  %3 = load i32, ptr %retval, align 4
  ret i32 %3
}

; Function Attrs: mustprogress uwtable
define hidden void @_ZN3sat9lookahead7heapifyEv(ptr noundef nonnull align 8 dereferenceable(1160) %this) #5 align 2 {
entry:
  %this.addr = alloca ptr, align 8
  %i = alloca i32, align 4
  store ptr %this, ptr %this.addr, align 8
  %this1 = load ptr, ptr %this.addr, align 8
  %m_candidates = getelementptr inbounds %"class.sat::lookahead", ptr %this1, i32 0, i32 48
  %call = call noundef i32 @_ZNK6vectorIN3sat9lookahead9candidateELb0EjE4sizeEv(ptr noundef nonnull align 8 dereferenceable(8) %m_candidates)
  %sub = sub i32 %call, 2
  %div = udiv i32 %sub, 2
  %add = add i32 1, %div
  store i32 %add, ptr %i, align 4
  br label %while.cond

while.cond:                                       ; preds = %while.body, %entry
  %0 = load i32, ptr %i, align 4
  %cmp = icmp ugt i32 %0, 0
  br i1 %cmp, label %while.body, label %while.end

while.body:                                       ; preds = %while.cond
  %1 = load i32, ptr %i, align 4
  %dec = add i32 %1, -1
  store i32 %dec, ptr %i, align 4
  %m_candidates2 = getelementptr inbounds %"class.sat::lookahead", ptr %this1, i32 0, i32 48
  %call3 = call noundef i32 @_ZNK6vectorIN3sat9lookahead9candidateELb0EjE4sizeEv(ptr noundef nonnull align 8 dereferenceable(8) %m_candidates2)
  call void @_ZN3sat9lookahead9sift_downEjj(ptr noundef nonnull align 8 dereferenceable(1160) %this1, i32 noundef %dec, i32 noundef %call3)
  br label %while.cond, !llvm.loop !25

while.end:                                        ; preds = %while.cond
  ret void
}