; Function Attrs: mustprogress nofree norecurse nosync nounwind memory(readwrite, inaccessiblemem: none) uwtable
define hidden void @_ZN3sat9lookahead7heapifyEv(ptr nocapture noundef nonnull readonly align 8 dereferenceable(1160) %this) local_unnamed_addr #10 align 2 {
entry:
  %m_candidates = getelementptr inbounds i8, ptr %this, i64 1096
  %0 = load ptr, ptr %m_candidates, align 8
  %cmp.i = icmp eq ptr %0, null
  br i1 %cmp.i, label %while.end, label %while.body.preheader

while.body.preheader:                             ; preds = %entry
  %arrayidx.i = getelementptr inbounds i8, ptr %0, i64 -4
  %1 = load i32, ptr %arrayidx.i, align 4
  %2 = add i32 %1, -2
  %3 = lshr i32 %2, 1
  %4 = add nuw i32 %3, 1
  %5 = zext i32 %4 to i64
  br label %while.body

while.body:                                       ; preds = %while.body.preheader, %_ZN3sat9lookahead9sift_downEjj.exit
  %indvars.iv = phi i64 [ %5, %while.body.preheader ], [ %indvars.iv.next, %_ZN3sat9lookahead9sift_downEjj.exit ]
  %indvars.iv.next = add nsw i64 %indvars.iv, -1
  %indvars = trunc i64 %indvars.iv.next to i32
  %6 = load ptr, ptr %m_candidates, align 8
  %cmp.i3 = icmp eq ptr %6, null
  br i1 %cmp.i3, label %_ZN3sat9lookahead9sift_downEjj.exit, label %_ZNK6vectorIN3sat9lookahead9candidateELb0EjE4sizeEv.exit7

_ZNK6vectorIN3sat9lookahead9candidateELb0EjE4sizeEv.exit7: ; preds = %while.body
  %arrayidx.i5 = getelementptr inbounds i8, ptr %6, i64 -4
  %7 = load i32, ptr %arrayidx.i5, align 4
  %idxprom.i.i = and i64 %indvars.iv.next, 4294967295
  %arrayidx.i.i = getelementptr inbounds %"struct.sat::lookahead::candidate", ptr %6, i64 %idxprom.i.i
  %c.sroa.0.0.copyload.i = load i64, ptr %arrayidx.i.i, align 8
  %c.sroa.2.0.call.sroa_idx.i = getelementptr inbounds i8, ptr %arrayidx.i.i, i64 8
  %c.sroa.2.0.copyload.i = load double, ptr %c.sroa.2.0.call.sroa_idx.i, align 8
  %k.0.in29.i = shl i32 %indvars, 1
  %k.030.i = or disjoint i32 %k.0.in29.i, 1
  %cmp31.i = icmp ult i32 %k.030.i, %7
  br i1 %cmp31.i, label %for.body.i, label %_ZN3sat9lookahead9sift_downEjj.exit

for.body.i:                                       ; preds = %_ZNK6vectorIN3sat9lookahead9candidateELb0EjE4sizeEv.exit7, %if.end17.i
  %k.034.i = phi i32 [ %k.0.i, %if.end17.i ], [ %k.030.i, %_ZNK6vectorIN3sat9lookahead9candidateELb0EjE4sizeEv.exit7 ]
  %k.0.in33.i = phi i32 [ %k.0.in.i, %if.end17.i ], [ %k.0.in29.i, %_ZNK6vectorIN3sat9lookahead9candidateELb0EjE4sizeEv.exit7 ]
  %i.032.i = phi i32 [ %k.1.i, %if.end17.i ], [ %indvars, %_ZNK6vectorIN3sat9lookahead9candidateELb0EjE4sizeEv.exit7 ]
  %add2.i = add i32 %k.0.in33.i, 2
  %cmp3.i = icmp ult i32 %add2.i, %7
  %.pre.i = load ptr, ptr %m_candidates, align 8
  %idxprom.i17.i = zext i32 %k.034.i to i64
  br i1 %cmp3.i, label %land.lhs.true.i, label %if.end.i8

land.lhs.true.i:                                  ; preds = %for.body.i
  %m_rating.i = getelementptr inbounds %"struct.sat::lookahead::candidate", ptr %.pre.i, i64 %idxprom.i17.i, i32 1
  %8 = load double, ptr %m_rating.i, align 8
  %idxprom.i19.i = zext i32 %add2.i to i64
  %m_rating9.i = getelementptr inbounds %"struct.sat::lookahead::candidate", ptr %.pre.i, i64 %idxprom.i19.i, i32 1
  %9 = load double, ptr %m_rating9.i, align 8
  %cmp10.i = fcmp ogt double %8, %9
  br i1 %cmp10.i, label %if.then.i, label %if.end.i8

if.then.i:                                        ; preds = %land.lhs.true.i
  br label %if.end.i8

if.end.i8:                                        ; preds = %if.then.i, %land.lhs.true.i, %for.body.i
  %idxprom.i21.pre-phi.i = phi i64 [ %idxprom.i19.i, %if.then.i ], [ %idxprom.i17.i, %land.lhs.true.i ], [ %idxprom.i17.i, %for.body.i ]
  %k.1.i = phi i32 [ %add2.i, %if.then.i ], [ %k.034.i, %land.lhs.true.i ], [ %k.034.i, %for.body.i ]
  %arrayidx.i22.i = getelementptr inbounds %"struct.sat::lookahead::candidate", ptr %.pre.i, i64 %idxprom.i21.pre-phi.i
  %m_rating14.i = getelementptr inbounds i8, ptr %arrayidx.i22.i, i64 8
  %10 = load double, ptr %m_rating14.i, align 8
  %cmp15.i = fcmp ugt double %c.sroa.2.0.copyload.i, %10
  br i1 %cmp15.i, label %if.end17.i, label %for.end.i

if.end17.i:                                       ; preds = %if.end.i8
  %idxprom.i25.i = zext i32 %i.032.i to i64
  %arrayidx.i26.i = getelementptr inbounds %"struct.sat::lookahead::candidate", ptr %.pre.i, i64 %idxprom.i25.i
  tail call void @llvm.memcpy.p0.p0.i64(ptr noundef nonnull align 8 dereferenceable(16) %arrayidx.i26.i, ptr noundef nonnull align 8 dereferenceable(16) %arrayidx.i22.i, i64 16, i1 false)
  %k.0.in.i = shl i32 %k.1.i, 1
  %k.0.i = or disjoint i32 %k.0.in.i, 1
  %cmp.i9 = icmp ult i32 %k.0.i, %7
  br i1 %cmp.i9, label %for.body.i, label %for.end.i, !llvm.loop !27

for.end.i:                                        ; preds = %if.end17.i, %if.end.i8
  %i.0.lcssa.i = phi i32 [ %k.1.i, %if.end17.i ], [ %i.032.i, %if.end.i8 ]
  %cmp24.i = icmp ugt i32 %i.0.lcssa.i, %indvars
  br i1 %cmp24.i, label %if.then25.i, label %_ZN3sat9lookahead9sift_downEjj.exit

if.then25.i:                                      ; preds = %for.end.i
  %11 = load ptr, ptr %m_candidates, align 8
  %idxprom.i27.i = zext i32 %i.0.lcssa.i to i64
  %arrayidx.i28.i = getelementptr inbounds %"struct.sat::lookahead::candidate", ptr %11, i64 %idxprom.i27.i
  store i64 %c.sroa.0.0.copyload.i, ptr %arrayidx.i28.i, align 8
  %c.sroa.2.0.call27.sroa_idx.i = getelementptr inbounds i8, ptr %arrayidx.i28.i, i64 8
  store double %c.sroa.2.0.copyload.i, ptr %c.sroa.2.0.call27.sroa_idx.i, align 8
  br label %_ZN3sat9lookahead9sift_downEjj.exit

_ZN3sat9lookahead9sift_downEjj.exit:              ; preds = %while.body, %_ZNK6vectorIN3sat9lookahead9candidateELb0EjE4sizeEv.exit7, %for.end.i, %if.then25.i
  %cmp.not = icmp eq i32 %indvars, 0
  br i1 %cmp.not, label %while.end, label %while.body, !llvm.loop !28

while.end:                                        ; preds = %_ZN3sat9lookahead9sift_downEjj.exit, %entry
  ret void
}